; Function Attrs: nounwind uwtable
define dso_local void @slurm_pack_addr_array(ptr noundef %0, i32 noundef %1, ptr noundef %2) local_unnamed_addr #1 {
  tail call void @pack32(i32 noundef %1, ptr noundef %2) #19
  %.not = icmp eq i32 %1, 0
  br i1 %.not, label %._crit_edge, label %.lr.ph.preheader

.lr.ph.preheader:                                 ; preds = %3
  %wide.trip.count = zext i32 %1 to i64
  br label %.lr.ph

._crit_edge:                                      ; preds = %.lr.ph, %3
  ret void

.lr.ph:                                           ; preds = %.lr.ph.preheader, %.lr.ph
  %indvars.iv = phi i64 [ 0, %.lr.ph.preheader ], [ %indvars.iv.next, %.lr.ph ]
  %4 = getelementptr inbounds nuw %struct.sockaddr_storage, ptr %0, i64 %indvars.iv
  tail call void @slurm_pack_addr(ptr noundef %4, ptr noundef %2) #19
  %indvars.iv.next = add nuw nsw i64 %indvars.iv, 1
  %exitcond.not = icmp eq i64 %indvars.iv.next, %wide.trip.count
  br i1 %exitcond.not, label %._crit_edge, label %.lr.ph, !llvm.loop !21
}